; Function Attrs: mustprogress nofree norecurse nosync nounwind willreturn memory(readwrite, inaccessiblemem: none) uwtable
define internal range(i32 0, 9) i32 @ctrl_get_img_format(ptr nocapture noundef readonly %0, ptr nocapture noundef %1) #7 {
  %3 = load i32, ptr %1, align 8
  %4 = icmp ult i32 %3, 41
  br i1 %4, label %5, label %11

5:                                                ; preds = %2
  %6 = getelementptr inbounds nuw i8, ptr %1, i64 16
  %7 = load ptr, ptr %6, align 8
  %8 = zext nneg i32 %3 to i64
  %9 = getelementptr i8, ptr %7, i64 %8
  %10 = add nuw nsw i32 %3, 8
  store i32 %10, ptr %1, align 8
  br label %15

11:                                               ; preds = %2
  %12 = getelementptr inbounds nuw i8, ptr %1, i64 8
  %13 = load ptr, ptr %12, align 8
  %14 = getelementptr i8, ptr %13, i64 8
  store ptr %14, ptr %12, align 8
  br label %15

15:                                               ; preds = %11, %5
  %16 = phi ptr [ %9, %5 ], [ %13, %11 ]
  %17 = load ptr, ptr %16, align 8
  %18 = getelementptr inbounds nuw i8, ptr %0, i64 27120
  %19 = load ptr, ptr %18, align 8
  %.not = icmp eq ptr %17, null
  br i1 %.not, label %38, label %20

20:                                               ; preds = %15
  %.not13 = icmp eq ptr %19, null
  br i1 %.not13, label %38, label %21

21:                                               ; preds = %20
  %22 = getelementptr inbounds nuw i8, ptr %19, i64 32
  %23 = load ptr, ptr %22, align 8
  %24 = load ptr, ptr %23, align 8
  %25 = getelementptr inbounds i8, ptr %24, i64 73248
  %26 = load i32, ptr %25, align 16
  %27 = getelementptr inbounds i8, ptr %24, i64 73252
  %28 = load i32, ptr %27, align 4
  %29 = getelementptr inbounds i8, ptr %24, i64 73228
  %30 = load i8, ptr %29, align 4
  %31 = or i32 %28, %26
  %or.cond.i = icmp eq i32 %31, 0
  br i1 %or.cond.i, label %get_img_format.exit, label %32

32:                                               ; preds = %21
  %33 = icmp eq i32 %28, 0
  %34 = icmp eq i32 %26, 1
  %or.cond3.i = and i1 %34, %33
  br i1 %or.cond3.i, label %get_img_format.exit, label %35

35:                                               ; preds = %32
  %36 = icmp eq i32 %28, 1
  %or.cond5.i = and i1 %34, %36
  %spec.select.i = select i1 %or.cond5.i, i32 258, i32 0
  br label %get_img_format.exit

get_img_format.exit:                              ; preds = %21, %32, %35
  %.0.i = phi i32 [ 262, %21 ], [ 261, %32 ], [ %spec.select.i, %35 ]
  %.not.i = icmp eq i8 %30, 0
  %37 = or disjoint i32 %.0.i, 2048
  %spec.select14.i = select i1 %.not.i, i32 %.0.i, i32 %37
  store i32 %spec.select14.i, ptr %17, align 4
  br label %38

38:                                               ; preds = %15, %20, %get_img_format.exit
  %.0 = phi i32 [ 0, %get_img_format.exit ], [ 1, %20 ], [ 8, %15 ]
  ret i32 %.0
}